; Function Attrs: nounwind uwtable
define hidden void @uv__pipe_close(ptr noundef %0) local_unnamed_addr #0 {
  %2 = getelementptr inbounds nuw i8, ptr %0, i64 256
  %3 = load ptr, ptr %2, align 8
  %.not = icmp eq ptr %3, null
  br i1 %.not, label %7, label %4

4:                                                ; preds = %1
  %5 = tail call i32 @unlink(ptr noundef nonnull %3) #12
  %6 = load ptr, ptr %2, align 8
  tail call void @uv__free(ptr noundef %6) #12
  store ptr null, ptr %2, align 8
  br label %7

7:                                                ; preds = %4, %1
  tail call void @uv__stream_close(ptr noundef nonnull %0) #12
  ret void
}